target datalayout = "e-m:e-p270:32:32-p271:32:32-p272:64:64-i64:64-i128:128-f80:128-n8:16:32:64-S128"
target triple = "x86_64-pc-linux-gnu"

%struct.tsi_peer_property = type { ptr, %struct.anon }
%struct.anon = type { ptr, i64 }

; Function Attrs: mustprogress nounwind uwtable
define void @_Z22tsi_init_peer_propertyv(ptr dead_on_unwind noalias writable sret(%struct.tsi_peer_property) align 8 %0) #4 {
  call void @llvm.memset.p0.i64(ptr align 8 %0, i8 0, i64 24, i1 false)
  ret void
}

; Function Attrs: mustprogress uwtable
define noundef i32 @_Z44tsi_construct_allocated_string_peer_propertyPKcmP17tsi_peer_property(ptr noundef %0, i64 noundef %1, ptr noundef %2) #5 {
  %4 = alloca ptr, align 8
  %5 = alloca i64, align 8
  %6 = alloca ptr, align 8
  %7 = alloca %struct.tsi_peer_property, align 8
  store ptr %0, ptr %4, align 8, !tbaa !12
  store i64 %1, ptr %5, align 8, !tbaa !45
  store ptr %2, ptr %6, align 8, !tbaa !69
  call void @llvm.lifetime.start.p0(i64 24, ptr %7) #3
  call void @_Z22tsi_init_peer_propertyv(ptr dead_on_unwind writable sret(%struct.tsi_peer_property) align 8 %7)
  %8 = load ptr, ptr %6, align 8, !tbaa !69
  call void @llvm.memcpy.p0.p0.i64(ptr align 8 %8, ptr align 8 %7, i64 24, i1 false), !tbaa.struct !75
  call void @llvm.lifetime.end.p0(i64 24, ptr %7) #3
  %9 = load ptr, ptr %4, align 8, !tbaa !12
  %10 = icmp ne ptr %9, null
  br i1 %10, label %11, label %16

11:                                               ; preds = %3
  %12 = load ptr, ptr %4, align 8, !tbaa !12
  %13 = call ptr @gpr_strdup(ptr noundef %12)
  %14 = load ptr, ptr %6, align 8, !tbaa !69
  %15 = getelementptr inbounds nuw %struct.tsi_peer_property, ptr %14, i32 0, i32 0
  store ptr %13, ptr %15, align 8, !tbaa !71
  br label %16

16:                                               ; preds = %11, %3
  %17 = load i64, ptr %5, align 8, !tbaa !45
  %18 = icmp ugt i64 %17, 0
  br i1 %18, label %19, label %29

19:                                               ; preds = %16
  %20 = load i64, ptr %5, align 8, !tbaa !45
  %21 = call ptr @gpr_zalloc(i64 noundef %20)
  %22 = load ptr, ptr %6, align 8, !tbaa !69
  %23 = getelementptr inbounds nuw %struct.tsi_peer_property, ptr %22, i32 0, i32 1
  %24 = getelementptr inbounds nuw %struct.anon, ptr %23, i32 0, i32 0
  store ptr %21, ptr %24, align 8, !tbaa !74
  %25 = load i64, ptr %5, align 8, !tbaa !45
  %26 = load ptr, ptr %6, align 8, !tbaa !69
  %27 = getelementptr inbounds nuw %struct.tsi_peer_property, ptr %26, i32 0, i32 1
  %28 = getelementptr inbounds nuw %struct.anon, ptr %27, i32 0, i32 1
  store i64 %25, ptr %28, align 8, !tbaa !81
  br label %29

29:                                               ; preds = %19, %16
  ret i32 0
}