; Function Attrs: mustprogress uwtable
define noundef i32 @_Z44tsi_construct_allocated_string_peer_propertyPKcmP17tsi_peer_property(ptr noundef %0, i64 noundef %1, ptr noundef writeonly captures(none) initializes((0, 24)) %2) local_unnamed_addr #4 {
  tail call void @llvm.memset.p0.i64(ptr noundef nonnull align 8 dereferenceable(24) %2, i8 0, i64 24, i1 false)
  %.not = icmp eq ptr %0, null
  br i1 %.not, label %6, label %4

4:                                                ; preds = %3
  %5 = tail call ptr @gpr_strdup(ptr noundef nonnull %0)
  store ptr %5, ptr %2, align 8, !tbaa !46
  br label %6

6:                                                ; preds = %4, %3
  %.not9 = icmp eq i64 %1, 0
  br i1 %.not9, label %11, label %7

7:                                                ; preds = %6
  %8 = tail call ptr @gpr_zalloc(i64 noundef %1)
  %9 = getelementptr inbounds nuw i8, ptr %2, i64 8
  store ptr %8, ptr %9, align 8, !tbaa !49
  %10 = getelementptr inbounds nuw i8, ptr %2, i64 16
  store i64 %1, ptr %10, align 8, !tbaa !56
  br label %11

11:                                               ; preds = %7, %6
  ret i32 0
}